; Function Attrs: mustprogress nounwind uwtable
define hidden void @_ZN3smt10theory_lraD2Ev(ptr noundef nonnull align 8 captures(none) dereferenceable(72) initializes((0, 8), (56, 64)) %0) unnamed_addr #5 align 2 personality ptr @__gxx_personality_v0 {
  store ptr getelementptr inbounds nuw inrange(-16, 416) (i8, ptr @_ZTVN3smt10theory_lraE, i64 16), ptr %0, align 8, !tbaa !504
  %2 = getelementptr inbounds nuw i8, ptr %0, i64 56
  store ptr getelementptr inbounds nuw inrange(-16, 40) (i8, ptr @_ZTVN3smt10theory_lraE, i64 448), ptr %2, align 8, !tbaa !504
  %3 = getelementptr inbounds nuw i8, ptr %0, i64 64
  %4 = load ptr, ptr %3, align 8, !tbaa !506
  %5 = icmp eq ptr %4, null
  br i1 %5, label %_Z7deallocIN3smt10theory_lra3impEEvPT_.exit, label %6

6:                                                ; preds = %1
  tail call void @_ZN3smt10theory_lra3impD2Ev(ptr noundef nonnull align 8 dereferenceable(928) %4) #27
  invoke void @_ZN6memory10deallocateEPv(ptr noundef nonnull %4)
          to label %_Z7deallocIN3smt10theory_lra3impEEvPT_.exit unwind label %21

_Z7deallocIN3smt10theory_lra3impEEvPT_.exit:      ; preds = %1, %6
  store ptr getelementptr inbounds nuw inrange(-16, 392) (i8, ptr @_ZTVN3smt6theoryE, i64 16), ptr %0, align 8, !tbaa !504
  %7 = getelementptr inbounds nuw i8, ptr %0, i64 40
  %8 = load ptr, ptr %7, align 8, !tbaa !662
  %.not.i.i.i = icmp eq ptr %8, null
  br i1 %.not.i.i.i, label %_ZN6vectorIjLb0EjED2Ev.exit.i, label %9

9:                                                ; preds = %_Z7deallocIN3smt10theory_lra3impEEvPT_.exit
  %10 = getelementptr inbounds i8, ptr %8, i64 -8
  invoke void @_ZN6memory10deallocateEPv(ptr noundef nonnull %10)
          to label %_ZN6vectorIjLb0EjED2Ev.exit.i unwind label %11

11:                                               ; preds = %9
  %12 = landingpad { ptr, i32 }
          catch ptr null
  %13 = extractvalue { ptr, i32 } %12, 0
  tail call void @__clang_call_terminate(ptr %13) #28
  unreachable

_ZN6vectorIjLb0EjED2Ev.exit.i:                    ; preds = %9, %_Z7deallocIN3smt10theory_lra3impEEvPT_.exit
  %14 = getelementptr inbounds nuw i8, ptr %0, i64 32
  %15 = load ptr, ptr %14, align 8, !tbaa !663
  %.not.i.i1.i = icmp eq ptr %15, null
  br i1 %.not.i.i1.i, label %_ZN3smt6theoryD2Ev.exit, label %16

16:                                               ; preds = %_ZN6vectorIjLb0EjED2Ev.exit.i
  %17 = getelementptr inbounds i8, ptr %15, i64 -8
  invoke void @_ZN6memory10deallocateEPv(ptr noundef nonnull %17)
          to label %_ZN3smt6theoryD2Ev.exit unwind label %18

18:                                               ; preds = %16
  %19 = landingpad { ptr, i32 }
          catch ptr null
  %20 = extractvalue { ptr, i32 } %19, 0
  tail call void @__clang_call_terminate(ptr %20) #28
  unreachable

_ZN3smt6theoryD2Ev.exit:                          ; preds = %_ZN6vectorIjLb0EjED2Ev.exit.i, %16
  ret void

21:                                               ; preds = %6
  %22 = landingpad { ptr, i32 }
          catch ptr null
  %23 = extractvalue { ptr, i32 } %22, 0
  tail call void @__clang_call_terminate(ptr %23) #28
  unreachable
}